; Function Attrs: mustprogress uwtable
define void @_ZN5arrow13SchemaBuilderC2ESt6vectorISt10shared_ptrINS_5FieldEESaIS4_EENS0_14ConflictPolicyENS3_12MergeOptionsE(ptr noundef nonnull align 8 dereferenceable(8) initializes((0, 8)) %0, ptr noundef nonnull %1, i32 noundef %2, ptr noundef nonnull %3) unnamed_addr #1 align 2 personality ptr @__gxx_personality_v0 {
  %5 = alloca i32, align 4
  %6 = alloca %"class.std::unique_ptr.329", align 8
  %7 = alloca ptr, align 8
  store i32 %2, ptr %5, align 4, !tbaa !1651
  store ptr null, ptr %0, align 8, !tbaa !1641
  call void @llvm.lifetime.start.p0(i64 8, ptr nonnull %6) #38
  call void @llvm.lifetime.start.p0(i64 8, ptr nonnull %7) #38
  store ptr null, ptr %7, align 8, !tbaa !1652
  invoke void @_ZSt11make_uniqueIN5arrow13SchemaBuilder4ImplEJSt6vectorISt10shared_ptrINS0_5FieldEESaIS6_EEDnRNS1_14ConflictPolicyERNS5_12MergeOptionsEEENSt8__detail9_MakeUniqIT_E15__single_objectEDpOT0_(ptr dead_on_unwind nonnull writable sret(%"class.std::unique_ptr.329") align 8 %6, ptr noundef nonnull align 8 dereferenceable(24) %1, ptr noundef nonnull align 8 dereferenceable(8) %7, ptr noundef nonnull align 4 dereferenceable(4) %5, ptr noundef nonnull align 1 dereferenceable(12) %3)
          to label %8 unwind label %11

8:                                                ; preds = %4
  %9 = load ptr, ptr %6, align 8, !tbaa !1650
  store ptr null, ptr %6, align 8, !tbaa !1650
  %10 = load ptr, ptr %0, align 8, !tbaa !1650
  store ptr %9, ptr %0, align 8, !tbaa !1650
  %.not.i.i.i.i = icmp eq ptr %10, null
  br i1 %.not.i.i.i.i, label %_ZNSt10unique_ptrIN5arrow13SchemaBuilder4ImplESt14default_deleteIS2_EED2Ev.exit, label %_ZNSt10unique_ptrIN5arrow13SchemaBuilder4ImplESt14default_deleteIS2_EEaSEOS5_.exit

_ZNSt10unique_ptrIN5arrow13SchemaBuilder4ImplESt14default_deleteIS2_EEaSEOS5_.exit: ; preds = %8
  call void @_ZN5arrow13SchemaBuilder4ImplD2Ev(ptr noundef nonnull align 8 dereferenceable(112) %10) #38
  call void @_ZdlPvm(ptr noundef nonnull %10, i64 noundef 112) #39
  %.pr = load ptr, ptr %6, align 8, !tbaa !1650
  %.not.i = icmp eq ptr %.pr, null
  br i1 %.not.i, label %_ZNSt10unique_ptrIN5arrow13SchemaBuilder4ImplESt14default_deleteIS2_EED2Ev.exit, label %_ZNKSt14default_deleteIN5arrow13SchemaBuilder4ImplEEclEPS2_.exit.i

_ZNKSt14default_deleteIN5arrow13SchemaBuilder4ImplEEclEPS2_.exit.i: ; preds = %_ZNSt10unique_ptrIN5arrow13SchemaBuilder4ImplESt14default_deleteIS2_EEaSEOS5_.exit
  call void @_ZN5arrow13SchemaBuilder4ImplD2Ev(ptr noundef nonnull align 8 dereferenceable(112) %.pr) #38
  call void @_ZdlPvm(ptr noundef nonnull %.pr, i64 noundef 112) #39
  br label %_ZNSt10unique_ptrIN5arrow13SchemaBuilder4ImplESt14default_deleteIS2_EED2Ev.exit

_ZNSt10unique_ptrIN5arrow13SchemaBuilder4ImplESt14default_deleteIS2_EED2Ev.exit: ; preds = %8, %_ZNSt10unique_ptrIN5arrow13SchemaBuilder4ImplESt14default_deleteIS2_EEaSEOS5_.exit, %_ZNKSt14default_deleteIN5arrow13SchemaBuilder4ImplEEclEPS2_.exit.i
  call void @llvm.lifetime.end.p0(i64 8, ptr nonnull %7) #38
  call void @llvm.lifetime.end.p0(i64 8, ptr nonnull %6) #38
  ret void

11:                                               ; preds = %4
  %12 = landingpad { ptr, i32 }
          cleanup
  call void @llvm.lifetime.end.p0(i64 8, ptr nonnull %7) #38
  call void @llvm.lifetime.end.p0(i64 8, ptr nonnull %6) #38
  call void @_ZNSt10unique_ptrIN5arrow13SchemaBuilder4ImplESt14default_deleteIS2_EED2Ev(ptr noundef nonnull align 8 dereferenceable(8) %0) #38
  resume { ptr, i32 } %12
}